; Function Attrs: mustprogress uwtable
define hidden noundef ptr @_ZN3smt10theory_str9mk_stringERK7zstring(ptr noundef nonnull align 8 dereferenceable(1800) %0, ptr noundef nonnull align 8 dereferenceable(80) %1) local_unnamed_addr #4 align 2 {
  %3 = alloca ptr, align 8
  %4 = getelementptr inbounds nuw i8, ptr %0, i64 56
  %5 = load ptr, ptr %4, align 8, !tbaa !826
  %6 = getelementptr inbounds nuw i8, ptr %5, i64 6
  %7 = load i8, ptr %6, align 2, !tbaa !827, !range !829, !noundef !830
  %8 = trunc nuw i8 %7 to i1
  br i1 %8, label %9, label %39

9:                                                ; preds = %2
  %10 = getelementptr inbounds nuw i8, ptr %0, i64 1296
  %11 = load i64, ptr %10, align 8, !tbaa !831
  %12 = add i64 %11, 1
  store i64 %12, ptr %10, align 8, !tbaa !831
  call void @llvm.lifetime.start.p0(i64 8, ptr nonnull %3) #25
  %13 = getelementptr inbounds nuw i8, ptr %0, i64 1272
  %14 = tail call noundef ptr @_ZNK9table2mapI17default_map_entryI7zstringP4exprEN3smt10theory_str17zstring_hash_procE10default_eqIS1_EE9find_coreERKS1_(ptr noundef nonnull align 8 dereferenceable(24) %13, ptr noundef nonnull align 8 dereferenceable(80) %1)
  %.not = icmp eq ptr %14, null
  br i1 %.not, label %_ZNK9table2mapI17default_map_entryI7zstringP4exprEN3smt10theory_str17zstring_hash_procE10default_eqIS1_EE4findERKS1_RS3_.exit, label %_ZNK9table2mapI17default_map_entryI7zstringP4exprEN3smt10theory_str17zstring_hash_procE10default_eqIS1_EE4findERKS1_RS3_.exit.thread

_ZNK9table2mapI17default_map_entryI7zstringP4exprEN3smt10theory_str17zstring_hash_procE10default_eqIS1_EE4findERKS1_RS3_.exit.thread: ; preds = %9
  %15 = getelementptr inbounds nuw i8, ptr %14, i64 88
  br label %38

_ZNK9table2mapI17default_map_entryI7zstringP4exprEN3smt10theory_str17zstring_hash_procE10default_eqIS1_EE4findERKS1_RS3_.exit: ; preds = %9
  %16 = getelementptr inbounds nuw i8, ptr %0, i64 128
  %17 = tail call noundef ptr @_ZNK8seq_util3str9mk_stringERK7zstring(ptr noundef nonnull align 8 dereferenceable(20) %16, ptr noundef nonnull align 8 dereferenceable(80) %1)
  store ptr %17, ptr %3, align 8, !tbaa !337
  %.not.i.i.i.i = icmp eq ptr %17, null
  br i1 %.not.i.i.i.i, label %_ZN15ref_vector_coreI4expr19ref_manager_wrapperIS0_11ast_managerEE7inc_refEPS0_.exit.i, label %18

18:                                               ; preds = %_ZNK9table2mapI17default_map_entryI7zstringP4exprEN3smt10theory_str17zstring_hash_procE10default_eqIS1_EE4findERKS1_RS3_.exit
  %19 = getelementptr inbounds nuw i8, ptr %17, i64 8
  %20 = load i32, ptr %19, align 4, !tbaa !253
  %21 = add i32 %20, 1
  store i32 %21, ptr %19, align 4, !tbaa !253
  br label %_ZN15ref_vector_coreI4expr19ref_manager_wrapperIS0_11ast_managerEE7inc_refEPS0_.exit.i

_ZN15ref_vector_coreI4expr19ref_manager_wrapperIS0_11ast_managerEE7inc_refEPS0_.exit.i: ; preds = %18, %_ZNK9table2mapI17default_map_entryI7zstringP4exprEN3smt10theory_str17zstring_hash_procE10default_eqIS1_EE4findERKS1_RS3_.exit
  %22 = getelementptr inbounds nuw i8, ptr %0, i64 248
  %23 = load ptr, ptr %22, align 8, !tbaa !167
  %24 = icmp eq ptr %23, null
  br i1 %24, label %31, label %25

25:                                               ; preds = %_ZN15ref_vector_coreI4expr19ref_manager_wrapperIS0_11ast_managerEE7inc_refEPS0_.exit.i
  %26 = getelementptr inbounds i8, ptr %23, i64 -4
  %27 = load i32, ptr %26, align 4, !tbaa !336
  %28 = getelementptr inbounds i8, ptr %23, i64 -8
  %29 = load i32, ptr %28, align 4, !tbaa !336
  %30 = icmp eq i32 %27, %29
  br i1 %30, label %31, label %_ZN15ref_vector_coreI4expr19ref_manager_wrapperIS0_11ast_managerEE9push_backEPS0_.exit

31:                                               ; preds = %25, %_ZN15ref_vector_coreI4expr19ref_manager_wrapperIS0_11ast_managerEE7inc_refEPS0_.exit.i
  tail call void @_ZN6vectorIP4exprLb0EjE13expand_vectorEv(ptr noundef nonnull align 8 dereferenceable(8) %22)
  %.pre.i.i = load ptr, ptr %22, align 8, !tbaa !167
  %.phi.trans.insert.i.i = getelementptr inbounds i8, ptr %.pre.i.i, i64 -4
  %.pre2.i.i = load i32, ptr %.phi.trans.insert.i.i, align 4, !tbaa !336
  br label %_ZN15ref_vector_coreI4expr19ref_manager_wrapperIS0_11ast_managerEE9push_backEPS0_.exit

_ZN15ref_vector_coreI4expr19ref_manager_wrapperIS0_11ast_managerEE9push_backEPS0_.exit: ; preds = %25, %31
  %32 = phi i32 [ %.pre2.i.i, %31 ], [ %27, %25 ]
  %33 = phi ptr [ %.pre.i.i, %31 ], [ %23, %25 ]
  %34 = getelementptr inbounds i8, ptr %33, i64 -4
  %35 = zext i32 %32 to i64
  %36 = getelementptr inbounds nuw ptr, ptr %33, i64 %35
  store ptr %17, ptr %36, align 8, !tbaa !337
  %37 = add i32 %32, 1
  store i32 %37, ptr %34, align 4, !tbaa !336
  call void @_ZN9table2mapI17default_map_entryI7zstringP4exprEN3smt10theory_str17zstring_hash_procE10default_eqIS1_EE6insertERKS1_RKS3_(ptr noundef nonnull align 8 dereferenceable(24) %13, ptr noundef nonnull align 8 dereferenceable(80) %1, ptr noundef nonnull align 8 dereferenceable(8) %3)
  br label %38

38:                                               ; preds = %_ZNK9table2mapI17default_map_entryI7zstringP4exprEN3smt10theory_str17zstring_hash_procE10default_eqIS1_EE4findERKS1_RS3_.exit.thread, %_ZN15ref_vector_coreI4expr19ref_manager_wrapperIS0_11ast_managerEE9push_backEPS0_.exit
  %.0.in = phi ptr [ %15, %_ZNK9table2mapI17default_map_entryI7zstringP4exprEN3smt10theory_str17zstring_hash_procE10default_eqIS1_EE4findERKS1_RS3_.exit.thread ], [ %3, %_ZN15ref_vector_coreI4expr19ref_manager_wrapperIS0_11ast_managerEE9push_backEPS0_.exit ]
  %.0 = load ptr, ptr %.0.in, align 8, !tbaa !337
  call void @llvm.lifetime.end.p0(i64 8, ptr nonnull %3) #25
  br label %42

39:                                               ; preds = %2
  %40 = getelementptr inbounds nuw i8, ptr %0, i64 128
  %41 = tail call noundef ptr @_ZNK8seq_util3str9mk_stringERK7zstring(ptr noundef nonnull align 8 dereferenceable(20) %40, ptr noundef nonnull align 8 dereferenceable(80) %1)
  br label %42

42:                                               ; preds = %39, %38
  %.1 = phi ptr [ %.0, %38 ], [ %41, %39 ]
  ret ptr %.1
}